target datalayout = "e-m:e-p270:32:32-p271:32:32-p272:64:64-i64:64-i128:128-f80:128-n8:16:32:64-S128"
target triple = "x86_64-pc-linux-gnu"

%struct._packet_info = type { ptr, ptr, i32, i32, %struct.nstime_t, %struct.nstime_t, %struct.nstime_t, i8, ptr, ptr, ptr, ptr, %struct._address, %struct._address, %struct._address, %struct._address, %struct._address, %struct._address, i32, ptr, i8, [3 x i8], %struct.anon, i32, i32, i32, i32, ptr, i8, ptr, ptr, i16, i16, i32, i32, i16, i32, i32, ptr, ptr, ptr, i8, i8, i16, i16, i16, i32, i16, i16, ptr, ptr, ptr, ptr, ptr, i32, i32 }
%struct.nstime_t = type { i64, i32 }
%struct._address = type { i32, i32, ptr, ptr }
%struct.anon = type { i8, [3 x i8] }

@.str.381 = private unnamed_addr constant [44 x i8] c"zbee_nwk.addr eq %s and zbee_nwk.addr eq %s\00", align 1

; Function Attrs: null_pointer_is_valid sspstrong uwtable
define internal ptr @zbee_nwk_build_filter(ptr noundef %0, ptr noundef %1) #1 {
  %3 = alloca ptr, align 8
  %4 = alloca ptr, align 8
  store ptr %0, ptr %3, align 8
  store ptr %1, ptr %4, align 8
  %5 = load ptr, ptr %3, align 8
  %6 = getelementptr inbounds nuw %struct._packet_info, ptr %5, i32 0, i32 51
  %7 = load ptr, ptr %6, align 8
  %8 = load ptr, ptr %3, align 8
  %9 = getelementptr inbounds nuw %struct._packet_info, ptr %8, i32 0, i32 14
  %10 = call ptr @address_to_str(ptr noundef %7, ptr noundef %9)
  %11 = load ptr, ptr %3, align 8
  %12 = getelementptr inbounds nuw %struct._packet_info, ptr %11, i32 0, i32 51
  %13 = load ptr, ptr %12, align 8
  %14 = load ptr, ptr %3, align 8
  %15 = getelementptr inbounds nuw %struct._packet_info, ptr %14, i32 0, i32 15
  %16 = call ptr @address_to_str(ptr noundef %13, ptr noundef %15)
  %17 = call noalias ptr (ptr, ptr, ...) @wmem_strdup_printf(ptr noundef null, ptr noundef @.str.381, ptr noundef %10, ptr noundef %16)
  ret ptr %17
}